; Function Attrs: nounwind sspstrong uwtable
define internal noundef i64 @gzfile_initialize_path_partial(i64 noundef %0) #0 {
  %2 = tail call ptr @rb_check_typeddata(i64 noundef %0, ptr noundef nonnull @gzfile_data_type) #18
  %3 = getelementptr inbounds nuw i8, ptr %2, i64 152
  %4 = load i64, ptr %3, align 8, !tbaa !117
  %5 = load i64, ptr @id_path, align 8, !tbaa !6
  %6 = tail call i64 (i64, i64, i32, ...) @rb_funcall(i64 noundef %4, i64 noundef %5, i32 noundef 0) #18
  %7 = getelementptr inbounds nuw i8, ptr %2, i64 256
  store i64 %6, ptr %7, align 8, !tbaa !195
  tail call void @rb_define_singleton_method(i64 noundef %0, ptr noundef nonnull @.str.76, ptr noundef nonnull @rb_gzfile_path, i32 noundef 0) #18
  ret i64 4
}